; Function Attrs: nounwind uwtable
define ptr @l_Array_foldlMUnsafe_fold___at_Lean_initFn____x40_Lean_Namespace___hyg_3____spec__8(ptr noundef readonly captures(none) %0, i64 noundef %1, i64 noundef %2, ptr noundef %3) local_unnamed_addr #0 {
  %.not45 = icmp eq i64 %1, %2
  br i1 %.not45, label %._crit_edge, label %.lr.ph

.lr.ph:                                           ; preds = %4
  %5 = getelementptr inbounds nuw i8, ptr %0, i64 24
  br label %6

6:                                                ; preds = %.lr.ph, %lean_dec.exit22.thread
  %.01847 = phi i64 [ %1, %.lr.ph ], [ %50, %lean_dec.exit22.thread ]
  %.02046 = phi ptr [ %3, %.lr.ph ], [ %.0.i35, %lean_dec.exit22.thread ]
  %7 = getelementptr inbounds nuw [0 x ptr], ptr %5, i64 0, i64 %.01847
  %8 = load ptr, ptr %7, align 8, !tbaa !4
  %9 = ptrtoint ptr %8 to i64
  %10 = and i64 %9, 1
  %.not.i28 = icmp eq i64 %10, 0
  br i1 %.not.i28, label %11, label %lean_array_uget.exit

11:                                               ; preds = %6
  %.val.i.i = load i32, ptr %8, align 4, !tbaa !8
  %12 = icmp sgt i32 %.val.i.i, 0
  br i1 %12, label %13, label %15, !prof !11

13:                                               ; preds = %11
  %14 = add nuw i32 %.val.i.i, 1
  store i32 %14, ptr %8, align 4, !tbaa !8
  br label %19

15:                                               ; preds = %11
  %.not.i.i = icmp eq i32 %.val.i.i, 0
  br i1 %.not.i.i, label %.thread32, label %17

.thread32:                                        ; preds = %15
  %16 = getelementptr i8, ptr %8, i64 8
  %.val3031 = load i64, ptr %16, align 8, !tbaa !12
  br label %lean_dec.exit23

17:                                               ; preds = %15
  tail call void @lean_inc_ref_cold(ptr noundef nonnull %8) #3
  %.pr = load i32, ptr %8, align 4, !tbaa !8
  br label %19

lean_array_uget.exit:                             ; preds = %6
  %18 = getelementptr i8, ptr %8, i64 8
  %.val = load i64, ptr %18, align 8, !tbaa !12
  br label %lean_dec.exit23

19:                                               ; preds = %13, %17
  %20 = phi i32 [ %14, %13 ], [ %.pr, %17 ]
  %21 = getelementptr i8, ptr %8, i64 8
  %.val30 = load i64, ptr %21, align 8, !tbaa !12
  %22 = icmp sgt i32 %20, 1
  br i1 %22, label %23, label %25, !prof !16

23:                                               ; preds = %19
  %24 = add nsw i32 %20, -1
  store i32 %24, ptr %8, align 4, !tbaa !8
  br label %lean_dec.exit23

25:                                               ; preds = %19
  %.not.i = icmp eq i32 %20, 0
  br i1 %.not.i, label %lean_dec.exit23, label %26

26:                                               ; preds = %25
  tail call void @lean_dec_ref_cold(ptr noundef nonnull %8) #3
  br label %lean_dec.exit23

lean_dec.exit23:                                  ; preds = %26, %25, %23, %.thread32, %lean_array_uget.exit
  %.in.in = phi i64 [ %.val, %lean_array_uget.exit ], [ %.val30, %23 ], [ %.val30, %25 ], [ %.val30, %26 ], [ %.val3031, %.thread32 ]
  %27 = ptrtoint ptr %.02046 to i64
  %28 = and i64 %27, 1
  %.not44 = icmp eq i64 %28, 0
  br i1 %.not44, label %40, label %29, !prof !14

29:                                               ; preds = %lean_dec.exit23
  %30 = lshr i64 %27, 1
  %31 = and i64 %.in.in, 9223372036854775807
  %32 = add nuw i64 %31, %30
  %33 = icmp sgt i64 %32, -1
  br i1 %33, label %34, label %38, !prof !11

34:                                               ; preds = %29
  %35 = shl nuw i64 %32, 1
  %36 = or disjoint i64 %35, 1
  %37 = inttoptr i64 %36 to ptr
  br label %lean_dec.exit22.thread

38:                                               ; preds = %29
  %39 = tail call ptr @lean_big_usize_to_nat(i64 noundef range(i64 0, -1) %32) #3
  br label %lean_dec.exit22.thread

40:                                               ; preds = %lean_dec.exit23
  %.in = shl i64 %.in.in, 1
  %41 = or disjoint i64 %.in, 1
  %42 = inttoptr i64 %41 to ptr
  %43 = tail call ptr @lean_nat_big_add(ptr noundef %.02046, ptr noundef nonnull %42) #3
  %44 = load i32, ptr %.02046, align 4, !tbaa !8
  %45 = icmp sgt i32 %44, 1
  br i1 %45, label %46, label %48, !prof !11

46:                                               ; preds = %40
  %47 = add nsw i32 %44, -1
  store i32 %47, ptr %.02046, align 4, !tbaa !8
  br label %lean_dec.exit22.thread

48:                                               ; preds = %40
  %.not.i26 = icmp eq i32 %44, 0
  br i1 %.not.i26, label %lean_dec.exit22.thread, label %49

49:                                               ; preds = %48
  tail call void @lean_dec_ref_cold(ptr noundef nonnull %.02046) #3
  br label %lean_dec.exit22.thread

lean_dec.exit22.thread:                           ; preds = %38, %34, %46, %48, %49
  %.0.i35 = phi ptr [ %43, %46 ], [ %43, %48 ], [ %43, %49 ], [ %39, %38 ], [ %37, %34 ]
  %50 = add i64 %.01847, 1
  %.not = icmp eq i64 %50, %2
  br i1 %.not, label %._crit_edge, label %6

._crit_edge:                                      ; preds = %lean_dec.exit22.thread, %4
  %.020.lcssa = phi ptr [ %3, %4 ], [ %.0.i35, %lean_dec.exit22.thread ]
  ret ptr %.020.lcssa
}